target datalayout = "e-m:e-p270:32:32-p271:32:32-p272:64:64-i64:64-i128:128-f80:128-n8:16:32:64-S128"
target triple = "x86_64-pc-linux-gnu"

%union.SourceSpan = type { i64 }
%struct.Vmem = type { ptr, i64, i64 }
%struct.Signature_ = type <{ %struct.CalleeAttributes, i16, i8, i32, i32, [4 x i8], ptr }>
%struct.CalleeAttributes = type { i8 }
%struct.Decl_ = type { ptr, ptr, %union.SourceSpan, i64, %union.anon, i32, %union.anon.0, i64, ptr, ptr, ptr, %union.anon.1 }
%union.anon = type { ptr }
%union.anon.0 = type { i16 }
%union.anon.1 = type { %struct.FuncDecl }
%struct.FuncDecl = type { i32, [4 x i8], %struct.Signature_, i32, i32, %union.anon.8 }
%union.anon.8 = type { %struct.anon.9 }
%struct.anon.9 = type { i16, %union.anon.10 }
%union.anon.10 = type { ptr }
%struct.VHeader_ = type { i32, i32, [0 x i8] }
%struct.Type_ = type { i32, ptr, ptr, ptr, %union.anon.85, ptr, ptr, %union.anon.87 }
%union.anon.85 = type { ptr }
%union.anon.87 = type { %struct.TypeFunction }
%struct.TypeFunction = type { ptr, ptr, ptr }
%struct.TypeInfo_ = type { i16, ptr, %union.SourceSpan, %union.anon.56 }
%union.anon.56 = type { %struct.anon.57 }
%struct.anon.57 = type { ptr, ptr }
%struct.VarDecl_ = type { i32, i32, %union.anon.14, %union.anon.15 }
%union.anon.14 = type { ptr }
%union.anon.15 = type { %struct.anon.16 }
%struct.anon.16 = type { ptr, %union.SourceSpan }

@type_info_arena = external global %struct.Vmem, align 8
@.str.183 = private unnamed_addr constant [93 x i8] c"The prototype method has a return type %s, but this function returns %s, they need to match.\00", align 1
@.str.184 = private unnamed_addr constant [34 x i8] c"The interface definition is here.\00", align 1
@.str.185 = private unnamed_addr constant [66 x i8] c"This function is missing parameters, %d parameters were expected.\00", align 1
@.str.186 = private unnamed_addr constant [39 x i8] c"Compare with the interface definition.\00", align 1
@.str.187 = private unnamed_addr constant [44 x i8] c"This function has too many parameters (%d).\00", align 1
@.str.188 = private unnamed_addr constant [59 x i8] c"Compare with the interface, which has only %d parameter%s.\00", align 1
@.str.189 = private unnamed_addr constant [1 x i8] zeroinitializer, align 1
@.str.190 = private unnamed_addr constant [2 x i8] c"s\00", align 1
@.str.191 = private unnamed_addr constant [97 x i8] c"The prototype argument has type %s, but in this function it has type %s. Please make them match.\00", align 1

; Function Attrs: nounwind uwtable
define internal ptr @type_infoptrzero(i32 noundef %0) #0 {
  %2 = alloca i32, align 4
  store i32 %0, ptr %2, align 4
  %3 = load i32, ptr %2, align 4
  %4 = icmp ne i32 %3, 0
  br i1 %4, label %5, label %10

5:                                                ; preds = %1
  %6 = load ptr, ptr @type_info_arena, align 8
  %7 = load i32, ptr %2, align 4
  %8 = zext i32 %7 to i64
  %9 = getelementptr inbounds %struct.TypeInfo_, ptr %6, i64 %8
  br label %11

10:                                               ; preds = %1
  br label %11

11:                                               ; preds = %10, %5
  %12 = phi ptr [ %9, %5 ], [ null, %10 ]
  ret ptr %12
}

; Function Attrs: nounwind uwtable
define internal ptr @type_infoptr(i32 noundef %0) #0 {
  %2 = alloca i32, align 4
  store i32 %0, ptr %2, align 4
  %3 = load ptr, ptr @type_info_arena, align 8
  %4 = load i32, ptr %2, align 4
  %5 = zext i32 %4 to i64
  %6 = getelementptr inbounds %struct.TypeInfo_, ptr %3, i64 %5
  ret ptr %6
}

; Function Attrs: nounwind uwtable
define internal zeroext i1 @sema_compare_method_with_interface(ptr noundef %0, ptr noundef %1, ptr noundef %2) #0 {
  %4 = alloca i32, align 4
  %5 = alloca i32, align 4
  %6 = alloca ptr, align 8
  %7 = alloca ptr, align 8
  %8 = alloca i32, align 4
  %9 = alloca ptr, align 8
  %10 = alloca ptr, align 8
  %11 = alloca i32, align 4
  %12 = alloca ptr, align 8
  %13 = alloca ptr, align 8
  %14 = alloca i32, align 4
  %15 = alloca ptr, align 8
  %16 = alloca ptr, align 8
  %17 = alloca i1, align 1
  %18 = alloca ptr, align 8
  %19 = alloca ptr, align 8
  %20 = alloca ptr, align 8
  %21 = alloca %struct.Signature_, align 8
  %22 = alloca %struct.Signature_, align 8
  %23 = alloca ptr, align 8
  %24 = alloca ptr, align 8
  %25 = alloca ptr, align 8
  %26 = alloca ptr, align 8
  %27 = alloca i32, align 4
  %28 = alloca i32, align 4
  %29 = alloca ptr, align 8
  %30 = alloca i32, align 4
  %31 = alloca i32, align 4
  %32 = alloca ptr, align 8
  store ptr %0, ptr %18, align 8
  store ptr %1, ptr %19, align 8
  store ptr %2, ptr %20, align 8
  %33 = load ptr, ptr %20, align 8
  %34 = getelementptr inbounds %struct.Decl_, ptr %33, i32 0, i32 11
  %35 = getelementptr inbounds %struct.FuncDecl, ptr %34, i32 0, i32 2
  call void @llvm.memcpy.p0.p0.i64(ptr align 8 %21, ptr align 8 %35, i64 24, i1 false)
  %36 = load ptr, ptr %19, align 8
  %37 = getelementptr inbounds %struct.Decl_, ptr %36, i32 0, i32 11
  %38 = getelementptr inbounds %struct.FuncDecl, ptr %37, i32 0, i32 2
  call void @llvm.memcpy.p0.p0.i64(ptr align 8 %22, ptr align 8 %38, i64 24, i1 false)
  %39 = getelementptr inbounds %struct.Signature_, ptr %21, i32 0, i32 4
  %40 = load i32, ptr %39, align 8
  store i32 %40, ptr %4, align 4
  %41 = load i32, ptr %4, align 4
  %42 = icmp ne i32 %41, 0
  br i1 %42, label %43, label %48

43:                                               ; preds = %3
  %44 = load i32, ptr %4, align 4
  %45 = call ptr @type_infoptr(i32 noundef %44)
  %46 = getelementptr inbounds %struct.TypeInfo_, ptr %45, i32 0, i32 1
  %47 = load ptr, ptr %46, align 8
  br label %49

48:                                               ; preds = %3
  br label %49

49:                                               ; preds = %48, %43
  %50 = phi ptr [ %47, %43 ], [ null, %48 ]
  store ptr %50, ptr %23, align 8
  %51 = getelementptr inbounds %struct.Signature_, ptr %22, i32 0, i32 4
  %52 = load i32, ptr %51, align 8
  store i32 %52, ptr %5, align 4
  %53 = load i32, ptr %5, align 4
  %54 = icmp ne i32 %53, 0
  br i1 %54, label %55, label %60

55:                                               ; preds = %49
  %56 = load i32, ptr %5, align 4
  %57 = call ptr @type_infoptr(i32 noundef %56)
  %58 = getelementptr inbounds %struct.TypeInfo_, ptr %57, i32 0, i32 1
  %59 = load ptr, ptr %58, align 8
  br label %61

60:                                               ; preds = %49
  br label %61

61:                                               ; preds = %60, %55
  %62 = phi ptr [ %59, %55 ], [ null, %60 ]
  store ptr %62, ptr %24, align 8
  %63 = load ptr, ptr %23, align 8
  %64 = getelementptr inbounds %struct.Type_, ptr %63, i32 0, i32 1
  %65 = load ptr, ptr %64, align 8
  %66 = load ptr, ptr %24, align 8
  %67 = getelementptr inbounds %struct.Type_, ptr %66, i32 0, i32 1
  %68 = load ptr, ptr %67, align 8
  %69 = icmp ne ptr %65, %68
  br i1 %69, label %70, label %87

70:                                               ; preds = %61
  %71 = getelementptr inbounds %struct.Signature_, ptr %22, i32 0, i32 4
  %72 = load i32, ptr %71, align 8
  %73 = call ptr @type_infoptr(i32 noundef %72)
  %74 = getelementptr inbounds %struct.TypeInfo_, ptr %73, i32 0, i32 2
  %75 = load ptr, ptr %23, align 8
  %76 = call ptr @type_quoted_error_string(ptr noundef %75)
  %77 = load ptr, ptr %24, align 8
  %78 = call ptr @type_quoted_error_string(ptr noundef %77)
  %79 = getelementptr inbounds %union.SourceSpan, ptr %74, i32 0, i32 0
  %80 = load i64, ptr %79, align 8
  call void (i64, ptr, ...) @sema_error_at(i64 %80, ptr noundef @.str.183, ptr noundef %76, ptr noundef %78)
  %81 = getelementptr inbounds %struct.Signature_, ptr %21, i32 0, i32 4
  %82 = load i32, ptr %81, align 8
  %83 = call ptr @type_infoptr(i32 noundef %82)
  %84 = getelementptr inbounds %struct.TypeInfo_, ptr %83, i32 0, i32 2
  %85 = getelementptr inbounds %union.SourceSpan, ptr %84, i32 0, i32 0
  %86 = load i64, ptr %85, align 8
  call void (i64, ptr, ...) @sema_error_prev_at(i64 %86, ptr noundef @.str.184)
  store i1 false, ptr %17, align 1
  br label %238

87:                                               ; preds = %61
  %88 = getelementptr inbounds %struct.Signature_, ptr %21, i32 0, i32 6
  %89 = load ptr, ptr %88, align 8
  store ptr %89, ptr %25, align 8
  %90 = getelementptr inbounds %struct.Signature_, ptr %22, i32 0, i32 6
  %91 = load ptr, ptr %90, align 8
  store ptr %91, ptr %26, align 8
  %92 = load ptr, ptr %25, align 8
  store ptr %92, ptr %9, align 8
  %93 = load ptr, ptr %9, align 8
  %94 = icmp ne ptr %93, null
  br i1 %94, label %96, label %95

95:                                               ; preds = %87
  store i32 0, ptr %8, align 4
  br label %101

96:                                               ; preds = %87
  %97 = load ptr, ptr %9, align 8
  store ptr %97, ptr %10, align 8
  %98 = load ptr, ptr %10, align 8
  %99 = getelementptr inbounds %struct.VHeader_, ptr %98, i64 -1
  %100 = load i32, ptr %99, align 4
  store i32 %100, ptr %8, align 4
  br label %101

101:                                              ; preds = %96, %95
  %102 = load i32, ptr %8, align 4
  store i32 %102, ptr %27, align 4
  %103 = load ptr, ptr %26, align 8
  store ptr %103, ptr %12, align 8
  %104 = load ptr, ptr %12, align 8
  %105 = icmp ne ptr %104, null
  br i1 %105, label %107, label %106

106:                                              ; preds = %101
  store i32 0, ptr %11, align 4
  br label %112

107:                                              ; preds = %101
  %108 = load ptr, ptr %12, align 8
  store ptr %108, ptr %13, align 8
  %109 = load ptr, ptr %13, align 8
  %110 = getelementptr inbounds %struct.VHeader_, ptr %109, i64 -1
  %111 = load i32, ptr %110, align 4
  store i32 %111, ptr %11, align 4
  br label %112

112:                                              ; preds = %107, %106
  %113 = load i32, ptr %11, align 4
  store i32 %113, ptr %28, align 4
  %114 = load i32, ptr %27, align 4
  %115 = load i32, ptr %28, align 4
  %116 = icmp ne i32 %114, %115
  br i1 %116, label %117, label %154

117:                                              ; preds = %112
  %118 = load i32, ptr %27, align 4
  %119 = load i32, ptr %28, align 4
  %120 = icmp ugt i32 %118, %119
  br i1 %120, label %121, label %135

121:                                              ; preds = %117
  %122 = load ptr, ptr %19, align 8
  %123 = getelementptr inbounds %struct.Decl_, ptr %122, i32 0, i32 2
  %124 = load i32, ptr %27, align 4
  %125 = getelementptr inbounds %union.SourceSpan, ptr %123, i32 0, i32 0
  %126 = load i64, ptr %125, align 8
  call void (i64, ptr, ...) @sema_error_at(i64 %126, ptr noundef @.str.185, i32 noundef %124)
  %127 = load ptr, ptr %25, align 8
  %128 = load i32, ptr %28, align 4
  %129 = zext i32 %128 to i64
  %130 = getelementptr inbounds ptr, ptr %127, i64 %129
  %131 = load ptr, ptr %130, align 8
  %132 = getelementptr inbounds %struct.Decl_, ptr %131, i32 0, i32 2
  %133 = getelementptr inbounds %union.SourceSpan, ptr %132, i32 0, i32 0
  %134 = load i64, ptr %133, align 8
  call void (i64, ptr, ...) @sema_error_prev_at(i64 %134, ptr noundef @.str.186)
  store i1 false, ptr %17, align 1
  br label %238

135:                                              ; preds = %117
  %136 = load ptr, ptr %26, align 8
  %137 = load i32, ptr %27, align 4
  %138 = zext i32 %137 to i64
  %139 = getelementptr inbounds ptr, ptr %136, i64 %138
  %140 = load ptr, ptr %139, align 8
  %141 = getelementptr inbounds %struct.Decl_, ptr %140, i32 0, i32 2
  %142 = load i32, ptr %28, align 4
  %143 = getelementptr inbounds %union.SourceSpan, ptr %141, i32 0, i32 0
  %144 = load i64, ptr %143, align 8
  call void (i64, ptr, ...) @sema_error_at(i64 %144, ptr noundef @.str.187, i32 noundef %142)
  %145 = load ptr, ptr %19, align 8
  %146 = getelementptr inbounds %struct.Decl_, ptr %145, i32 0, i32 2
  %147 = load i32, ptr %27, align 4
  %148 = load i32, ptr %27, align 4
  %149 = icmp eq i32 %148, 1
  %150 = select i1 %149, ptr @.str.189, ptr @.str.190
  %151 = getelementptr inbounds %union.SourceSpan, ptr %146, i32 0, i32 0
  %152 = load i64, ptr %151, align 8
  call void (i64, ptr, ...) @sema_error_prev_at(i64 %152, ptr noundef @.str.188, i32 noundef %147, ptr noundef %150)
  br label %153

153:                                              ; preds = %135
  store i1 false, ptr %17, align 1
  br label %238

154:                                              ; preds = %112
  %155 = load ptr, ptr %26, align 8
  store ptr %155, ptr %29, align 8
  %156 = load ptr, ptr %29, align 8
  store ptr %156, ptr %15, align 8
  %157 = load ptr, ptr %15, align 8
  %158 = icmp ne ptr %157, null
  br i1 %158, label %160, label %159

159:                                              ; preds = %154
  store i32 0, ptr %14, align 4
  br label %165

160:                                              ; preds = %154
  %161 = load ptr, ptr %15, align 8
  store ptr %161, ptr %16, align 8
  %162 = load ptr, ptr %16, align 8
  %163 = getelementptr inbounds %struct.VHeader_, ptr %162, i64 -1
  %164 = load i32, ptr %163, align 4
  store i32 %164, ptr %14, align 4
  br label %165

165:                                              ; preds = %160, %159
  %166 = load i32, ptr %14, align 4
  store i32 %166, ptr %30, align 4
  store i32 0, ptr %31, align 4
  br label %167

167:                                              ; preds = %232, %165
  %168 = load i32, ptr %31, align 4
  %169 = load i32, ptr %30, align 4
  %170 = icmp ult i32 %168, %169
  br i1 %170, label %171, label %235

171:                                              ; preds = %167
  %172 = load ptr, ptr %29, align 8
  %173 = load i32, ptr %31, align 4
  %174 = zext i32 %173 to i64
  %175 = getelementptr inbounds ptr, ptr %172, i64 %174
  %176 = load ptr, ptr %175, align 8
  store ptr %176, ptr %32, align 8
  %177 = load i32, ptr %31, align 4
  %178 = icmp eq i32 %177, 0
  br i1 %178, label %179, label %180

179:                                              ; preds = %171
  br label %232

180:                                              ; preds = %171
  %181 = load ptr, ptr %32, align 8
  %182 = getelementptr inbounds %struct.Decl_, ptr %181, i32 0, i32 10
  %183 = load ptr, ptr %182, align 8
  %184 = getelementptr inbounds %struct.Type_, ptr %183, i32 0, i32 1
  %185 = load ptr, ptr %184, align 8
  %186 = load ptr, ptr %25, align 8
  %187 = load i32, ptr %31, align 4
  %188 = zext i32 %187 to i64
  %189 = getelementptr inbounds ptr, ptr %186, i64 %188
  %190 = load ptr, ptr %189, align 8
  %191 = getelementptr inbounds %struct.Decl_, ptr %190, i32 0, i32 10
  %192 = load ptr, ptr %191, align 8
  %193 = getelementptr inbounds %struct.Type_, ptr %192, i32 0, i32 1
  %194 = load ptr, ptr %193, align 8
  %195 = icmp ne ptr %185, %194
  br i1 %195, label %196, label %231

196:                                              ; preds = %180
  %197 = load ptr, ptr %32, align 8
  store ptr %197, ptr %6, align 8
  %198 = load ptr, ptr %6, align 8
  %199 = getelementptr inbounds %struct.Decl_, ptr %198, i32 0, i32 11
  %200 = getelementptr inbounds %struct.VarDecl_, ptr %199, i32 0, i32 1
  %201 = load i32, ptr %200, align 4
  %202 = call ptr @type_infoptrzero(i32 noundef %201)
  %203 = getelementptr inbounds %struct.TypeInfo_, ptr %202, i32 0, i32 2
  %204 = load ptr, ptr %25, align 8
  %205 = load i32, ptr %31, align 4
  %206 = zext i32 %205 to i64
  %207 = getelementptr inbounds ptr, ptr %204, i64 %206
  %208 = load ptr, ptr %207, align 8
  %209 = getelementptr inbounds %struct.Decl_, ptr %208, i32 0, i32 10
  %210 = load ptr, ptr %209, align 8
  %211 = call ptr @type_quoted_error_string(ptr noundef %210)
  %212 = load ptr, ptr %32, align 8
  %213 = getelementptr inbounds %struct.Decl_, ptr %212, i32 0, i32 10
  %214 = load ptr, ptr %213, align 8
  %215 = call ptr @type_quoted_error_string(ptr noundef %214)
  %216 = getelementptr inbounds %union.SourceSpan, ptr %203, i32 0, i32 0
  %217 = load i64, ptr %216, align 8
  call void (i64, ptr, ...) @sema_error_at(i64 %217, ptr noundef @.str.191, ptr noundef %211, ptr noundef %215)
  %218 = load ptr, ptr %25, align 8
  %219 = load i32, ptr %31, align 4
  %220 = zext i32 %219 to i64
  %221 = getelementptr inbounds ptr, ptr %218, i64 %220
  %222 = load ptr, ptr %221, align 8
  store ptr %222, ptr %7, align 8
  %223 = load ptr, ptr %7, align 8
  %224 = getelementptr inbounds %struct.Decl_, ptr %223, i32 0, i32 11
  %225 = getelementptr inbounds %struct.VarDecl_, ptr %224, i32 0, i32 1
  %226 = load i32, ptr %225, align 4
  %227 = call ptr @type_infoptrzero(i32 noundef %226)
  %228 = getelementptr inbounds %struct.TypeInfo_, ptr %227, i32 0, i32 2
  %229 = getelementptr inbounds %union.SourceSpan, ptr %228, i32 0, i32 0
  %230 = load i64, ptr %229, align 8
  call void (i64, ptr, ...) @sema_error_prev_at(i64 %230, ptr noundef @.str.184)
  store i1 false, ptr %17, align 1
  br label %238

231:                                              ; preds = %180
  br label %232

232:                                              ; preds = %231, %179
  %233 = load i32, ptr %31, align 4
  %234 = add i32 %233, 1
  store i32 %234, ptr %31, align 4
  br label %167, !llvm.loop !50

235:                                              ; preds = %167
  br label %236

236:                                              ; preds = %235
  br label %237

237:                                              ; preds = %236
  store i1 true, ptr %17, align 1
  br label %238

238:                                              ; preds = %237, %196, %153, %121, %70
  %239 = load i1, ptr %17, align 1
  ret i1 %239
}