; Function Attrs: nounwind uwtable
define internal fastcc noundef zeroext i1 @sema_compare_method_with_interface(ptr nocapture noundef readonly %0, i32 %.96.val, ptr readonly %.104.val) unnamed_addr #0 {
  %.sroa.1.0..sroa_idx = getelementptr inbounds i8, ptr %0, i64 96
  %.sroa.1.0.copyload = load i32, ptr %.sroa.1.0..sroa_idx, align 8
  %.sroa.335.0..sroa_idx = getelementptr inbounds i8, ptr %0, i64 104
  %.sroa.335.0.copyload = load ptr, ptr %.sroa.335.0..sroa_idx, align 8
  %.not = icmp ne i32 %.96.val, 0
  tail call void @llvm.assume(i1 %.not)
  %2 = load ptr, ptr @type_info_arena, align 8
  %3 = zext i32 %.96.val to i64
  %4 = getelementptr inbounds %struct.TypeInfo_, ptr %2, i64 %3, i32 1
  %5 = load ptr, ptr %4, align 8
  %.not68 = icmp ne i32 %.sroa.1.0.copyload, 0
  tail call void @llvm.assume(i1 %.not68)
  %6 = zext i32 %.sroa.1.0.copyload to i64
  %7 = getelementptr inbounds %struct.TypeInfo_, ptr %2, i64 %6
  %8 = getelementptr inbounds i8, ptr %7, i64 8
  %9 = load ptr, ptr %8, align 8
  %10 = getelementptr inbounds i8, ptr %5, i64 8
  %11 = load ptr, ptr %10, align 8
  %12 = getelementptr inbounds i8, ptr %9, i64 8
  %13 = load ptr, ptr %12, align 8
  %.not69 = icmp eq ptr %11, %13
  br i1 %.not69, label %22, label %14

14:                                               ; preds = %1
  %15 = getelementptr inbounds i8, ptr %7, i64 16
  %16 = tail call ptr @type_quoted_error_string(ptr noundef nonnull %5) #10
  %17 = tail call ptr @type_quoted_error_string(ptr noundef nonnull %9) #10
  %18 = load i64, ptr %15, align 8
  tail call void (i64, ptr, ...) @sema_error_at(i64 %18, ptr noundef nonnull @.str.183, ptr noundef %16, ptr noundef %17) #10
  %19 = load ptr, ptr @type_info_arena, align 8
  %20 = getelementptr inbounds %struct.TypeInfo_, ptr %19, i64 %3, i32 2
  %21 = load i64, ptr %20, align 8
  tail call void (i64, ptr, ...) @sema_error_prev_at(i64 %21, ptr noundef nonnull @.str.184) #10
  br label %.loopexit

22:                                               ; preds = %1
  %.not70 = icmp eq ptr %.104.val, null
  br i1 %.not70, label %.thread5, label %23

23:                                               ; preds = %22
  %24 = getelementptr inbounds i8, ptr %.104.val, i64 -8
  %25 = load i32, ptr %24, align 4
  %.not71 = icmp eq ptr %.sroa.335.0.copyload, null
  br i1 %.not71, label %26, label %.thread

.thread5:                                         ; preds = %22
  %.not717 = icmp eq ptr %.sroa.335.0.copyload, null
  br i1 %.not717, label %.loopexit, label %.thread

26:                                               ; preds = %23
  %.not72 = icmp eq i32 %25, 0
  br i1 %.not72, label %.loopexit, label %.thread14

.thread:                                          ; preds = %23, %.thread5
  %.010 = phi i32 [ 0, %.thread5 ], [ %25, %23 ]
  %27 = getelementptr inbounds i8, ptr %.sroa.335.0.copyload, i64 -8
  %28 = load i32, ptr %27, align 4
  %.not722 = icmp eq i32 %.010, %28
  br i1 %.not722, label %.thread11, label %29

29:                                               ; preds = %.thread
  %30 = icmp ugt i32 %.010, %28
  br i1 %30, label %.thread14, label %38

.thread14:                                        ; preds = %26, %29
  %.065318 = phi i32 [ %28, %29 ], [ 0, %26 ]
  %.0917 = phi i32 [ %.010, %29 ], [ %25, %26 ]
  %31 = getelementptr inbounds i8, ptr %0, i64 16
  %32 = load i64, ptr %31, align 8
  tail call void (i64, ptr, ...) @sema_error_at(i64 %32, ptr noundef nonnull @.str.185, i32 noundef %.0917) #10
  %33 = zext i32 %.065318 to i64
  %34 = getelementptr inbounds ptr, ptr %.104.val, i64 %33
  %35 = load ptr, ptr %34, align 8
  %36 = getelementptr inbounds i8, ptr %35, i64 16
  %37 = load i64, ptr %36, align 8
  tail call void (i64, ptr, ...) @sema_error_prev_at(i64 %37, ptr noundef nonnull @.str.186) #10
  br label %.loopexit

38:                                               ; preds = %29
  %39 = zext i32 %.010 to i64
  %40 = getelementptr inbounds ptr, ptr %.sroa.335.0.copyload, i64 %39
  %41 = load ptr, ptr %40, align 8
  %42 = getelementptr inbounds i8, ptr %41, i64 16
  %43 = load i64, ptr %42, align 8
  tail call void (i64, ptr, ...) @sema_error_at(i64 %43, ptr noundef nonnull @.str.187, i32 noundef %28) #10
  %44 = getelementptr inbounds i8, ptr %0, i64 16
  %45 = icmp eq i32 %.010, 1
  %46 = select i1 %45, ptr @.str.189, ptr @.str.190
  %47 = load i64, ptr %44, align 8
  tail call void (i64, ptr, ...) @sema_error_prev_at(i64 %47, ptr noundef nonnull @.str.188, i32 noundef %.010, ptr noundef nonnull %46) #10
  br label %.loopexit

.thread11:                                        ; preds = %.thread
  %.not25 = icmp eq i32 %.010, 0
  br i1 %.not25, label %.loopexit, label %.lr.ph.preheader

.lr.ph.preheader:                                 ; preds = %.thread11
  %wide.trip.count = zext i32 %.010 to i64
  br label %.lr.ph

.lr.ph:                                           ; preds = %.lr.ph.preheader, %84
  %indvars.iv = phi i64 [ 0, %.lr.ph.preheader ], [ %indvars.iv.next, %84 ]
  %48 = icmp eq i64 %indvars.iv, 0
  br i1 %48, label %84, label %49

49:                                               ; preds = %.lr.ph
  %50 = getelementptr inbounds ptr, ptr %.sroa.335.0.copyload, i64 %indvars.iv
  %51 = load ptr, ptr %50, align 8
  %52 = getelementptr inbounds i8, ptr %51, i64 72
  %53 = load ptr, ptr %52, align 8
  %54 = getelementptr inbounds i8, ptr %53, i64 8
  %55 = load ptr, ptr %54, align 8
  %56 = getelementptr inbounds ptr, ptr %.104.val, i64 %indvars.iv
  %57 = load ptr, ptr %56, align 8
  %58 = getelementptr inbounds i8, ptr %57, i64 72
  %59 = load ptr, ptr %58, align 8
  %60 = getelementptr inbounds i8, ptr %59, i64 8
  %61 = load ptr, ptr %60, align 8
  %.not73 = icmp eq ptr %55, %61
  br i1 %.not73, label %84, label %62

62:                                               ; preds = %49
  %63 = getelementptr inbounds i8, ptr %51, i64 72
  %64 = getelementptr inbounds ptr, ptr %.104.val, i64 %indvars.iv
  %65 = getelementptr inbounds i8, ptr %51, i64 84
  %66 = load i32, ptr %65, align 4
  %.not.i = icmp eq i32 %66, 0
  %67 = zext i32 %66 to i64
  %68 = getelementptr inbounds %struct.TypeInfo_, ptr %2, i64 %67
  %69 = select i1 %.not.i, ptr null, ptr %68
  %70 = getelementptr inbounds i8, ptr %69, i64 16
  %71 = tail call ptr @type_quoted_error_string(ptr noundef nonnull %59) #10
  %72 = load ptr, ptr %63, align 8
  %73 = tail call ptr @type_quoted_error_string(ptr noundef %72) #10
  %74 = load i64, ptr %70, align 8
  tail call void (i64, ptr, ...) @sema_error_at(i64 %74, ptr noundef nonnull @.str.191, ptr noundef %71, ptr noundef %73) #10
  %75 = load ptr, ptr %64, align 8
  %76 = getelementptr inbounds i8, ptr %75, i64 84
  %77 = load i32, ptr %76, align 4
  %.not.i74 = icmp eq i32 %77, 0
  %78 = load ptr, ptr @type_info_arena, align 8
  %79 = zext i32 %77 to i64
  %80 = getelementptr inbounds %struct.TypeInfo_, ptr %78, i64 %79
  %81 = select i1 %.not.i74, ptr null, ptr %80
  %82 = getelementptr inbounds i8, ptr %81, i64 16
  %83 = load i64, ptr %82, align 8
  tail call void (i64, ptr, ...) @sema_error_prev_at(i64 %83, ptr noundef nonnull @.str.184) #10
  br label %.loopexit

84:                                               ; preds = %49, %.lr.ph
  %indvars.iv.next = add nuw nsw i64 %indvars.iv, 1
  %exitcond.not = icmp eq i64 %indvars.iv.next, %wide.trip.count
  br i1 %exitcond.not, label %.loopexit, label %.lr.ph, !llvm.loop !50

.loopexit:                                        ; preds = %84, %.thread5, %26, %.thread11, %62, %38, %.thread14, %14
  %.067 = phi i1 [ false, %14 ], [ false, %.thread14 ], [ false, %38 ], [ false, %62 ], [ true, %.thread11 ], [ true, %26 ], [ true, %.thread5 ], [ true, %84 ]
  ret i1 %.067
}